target datalayout = "e-m:e-p270:32:32-p271:32:32-p272:64:64-i64:64-i128:128-f80:128-n8:16:32:64-S128"
target triple = "x86_64-pc-linux-gnu"

%struct.commit = type { %struct.object, i64, ptr, ptr, i32 }
%struct.object = type { i32, %struct.object_id }
%struct.object_id = type { [32 x i8], i32 }
%struct.rev_collect = type { ptr, i32, i32, i8 }

@the_repository = external global ptr, align 8
@.str.37 = private unnamed_addr constant [27 x i8] c"size_t overflow: %lu * %lu\00", align 1
@is_null_oid.null_hash = internal constant [32 x i8] zeroinitializer, align 16

; Function Attrs: nounwind uwtable
define dso_local i32 @repo_parse_commit_gently(ptr noundef %0, ptr noundef %1, i32 noundef %2) #0 {
  %4 = alloca ptr, align 8
  %5 = alloca ptr, align 8
  %6 = alloca i32, align 4
  store ptr %0, ptr %4, align 8, !tbaa !4
  store ptr %1, ptr %5, align 8, !tbaa !17
  store i32 %2, ptr %6, align 4, !tbaa !11
  %7 = load ptr, ptr %4, align 8, !tbaa !4
  %8 = load ptr, ptr %5, align 8, !tbaa !17
  %9 = load i32, ptr %6, align 4, !tbaa !11
  %10 = call i32 @repo_parse_commit_internal(ptr noundef %7, ptr noundef %8, i32 noundef %9, i32 noundef 1)
  ret i32 %10
}

; Function Attrs: inlinehint nounwind uwtable
define internal i64 @st_mult(i64 noundef %0, i64 noundef %1) #4 {
  %3 = alloca i64, align 8
  %4 = alloca i64, align 8
  store i64 %0, ptr %3, align 8, !tbaa !47
  store i64 %1, ptr %4, align 8, !tbaa !47
  %5 = load i64, ptr %3, align 8, !tbaa !47
  %6 = icmp ne i64 %5, 0
  br i1 %6, label %7, label %15

7:                                                ; preds = %2
  %8 = load i64, ptr %4, align 8, !tbaa !47
  %9 = load i64, ptr %3, align 8, !tbaa !47
  %10 = udiv i64 -1, %9
  %11 = icmp ugt i64 %8, %10
  br i1 %11, label %12, label %15

12:                                               ; preds = %7
  %13 = load i64, ptr %3, align 8, !tbaa !47
  %14 = load i64, ptr %4, align 8, !tbaa !47
  call void (ptr, ...) @die(ptr noundef @.str.37, i64 noundef %13, i64 noundef %14) #12
  unreachable

15:                                               ; preds = %7, %2
  %16 = load i64, ptr %3, align 8, !tbaa !47
  %17 = load i64, ptr %4, align 8, !tbaa !47
  %18 = mul i64 %16, %17
  ret i64 %18
}

; Function Attrs: inlinehint nounwind uwtable
define internal i32 @repo_parse_commit(ptr noundef %0, ptr noundef %1) #4 {
  %3 = alloca ptr, align 8
  %4 = alloca ptr, align 8
  store ptr %0, ptr %3, align 8, !tbaa !4
  store ptr %1, ptr %4, align 8, !tbaa !17
  %5 = load ptr, ptr %3, align 8, !tbaa !4
  %6 = load ptr, ptr %4, align 8, !tbaa !17
  %7 = call i32 @repo_parse_commit_gently(ptr noundef %5, ptr noundef %6, i32 noundef 0)
  ret i32 %7
}

; Function Attrs: nounwind uwtable
define dso_local ptr @lookup_commit(ptr noundef %0, ptr noundef %1) #0 {
  %3 = alloca ptr, align 8
  %4 = alloca ptr, align 8
  %5 = alloca ptr, align 8
  %6 = alloca ptr, align 8
  %7 = alloca i32, align 4
  store ptr %0, ptr %4, align 8, !tbaa !4
  store ptr %1, ptr %5, align 8, !tbaa !9
  call void @llvm.lifetime.start.p0(i64 8, ptr %6) #11
  %8 = load ptr, ptr %4, align 8, !tbaa !4
  %9 = load ptr, ptr %5, align 8, !tbaa !9
  %10 = call ptr @lookup_object(ptr noundef %8, ptr noundef %9)
  store ptr %10, ptr %6, align 8, !tbaa !13
  %11 = load ptr, ptr %6, align 8, !tbaa !13
  %12 = icmp ne ptr %11, null
  br i1 %12, label %19, label %13

13:                                               ; preds = %2
  %14 = load ptr, ptr %4, align 8, !tbaa !4
  %15 = load ptr, ptr %5, align 8, !tbaa !9
  %16 = load ptr, ptr %4, align 8, !tbaa !4
  %17 = call ptr @alloc_commit_node(ptr noundef %16)
  %18 = call ptr @create_object(ptr noundef %14, ptr noundef %15, ptr noundef %17)
  store ptr %18, ptr %3, align 8
  store i32 1, ptr %7, align 4
  br label %22

19:                                               ; preds = %2
  %20 = load ptr, ptr %6, align 8, !tbaa !13
  %21 = call ptr @object_as_type(ptr noundef %20, i32 noundef 1, i32 noundef 0)
  store ptr %21, ptr %3, align 8
  store i32 1, ptr %7, align 4
  br label %22

22:                                               ; preds = %19, %13
  call void @llvm.lifetime.end.p0(i64 8, ptr %6) #11
  %23 = load ptr, ptr %3, align 8
  ret ptr %23
}

; Function Attrs: inlinehint nounwind uwtable
define internal i32 @is_null_oid(ptr noundef %0) #4 {
  %2 = alloca ptr, align 8
  store ptr %0, ptr %2, align 8, !tbaa !9
  %3 = load ptr, ptr %2, align 8, !tbaa !9
  %4 = getelementptr inbounds nuw %struct.object_id, ptr %3, i32 0, i32 0
  %5 = getelementptr inbounds [32 x i8], ptr %4, i64 0, i64 0
  %6 = call i32 @memcmp(ptr noundef %5, ptr noundef @is_null_oid.null_hash, i64 noundef 32) #13
  %7 = icmp ne i32 %6, 0
  %8 = xor i1 %7, true
  %9 = zext i1 %8 to i32
  ret i32 %9
}

; Function Attrs: nounwind uwtable
define internal void @add_one_commit(ptr noundef %0, ptr noundef %1) #0 {
  %3 = alloca ptr, align 8
  %4 = alloca ptr, align 8
  %5 = alloca ptr, align 8
  %6 = alloca i32, align 4
  store ptr %0, ptr %3, align 8, !tbaa !9
  store ptr %1, ptr %4, align 8, !tbaa !170
  call void @llvm.lifetime.start.p0(i64 8, ptr %5) #11
  %7 = load ptr, ptr %3, align 8, !tbaa !9
  %8 = call i32 @is_null_oid(ptr noundef %7)
  %9 = icmp ne i32 %8, 0
  br i1 %9, label %10, label %11

10:                                               ; preds = %2
  store i32 1, ptr %6, align 4
  br label %103

11:                                               ; preds = %2
  %12 = load ptr, ptr @the_repository, align 8, !tbaa !4
  %13 = load ptr, ptr %3, align 8, !tbaa !9
  %14 = call ptr @lookup_commit(ptr noundef %12, ptr noundef %13)
  store ptr %14, ptr %5, align 8, !tbaa !17
  %15 = load ptr, ptr %5, align 8, !tbaa !17
  %16 = icmp ne ptr %15, null
  br i1 %16, label %17, label %29

17:                                               ; preds = %11
  %18 = load ptr, ptr %5, align 8, !tbaa !17
  %19 = getelementptr inbounds nuw %struct.commit, ptr %18, i32 0, i32 0
  %20 = load i32, ptr %19, align 8
  %21 = lshr i32 %20, 4
  %22 = and i32 %21, 16
  %23 = icmp ne i32 %22, 0
  br i1 %23, label %29, label %24

24:                                               ; preds = %17
  %25 = load ptr, ptr @the_repository, align 8, !tbaa !4
  %26 = load ptr, ptr %5, align 8, !tbaa !17
  %27 = call i32 @repo_parse_commit(ptr noundef %25, ptr noundef %26)
  %28 = icmp ne i32 %27, 0
  br i1 %28, label %29, label %30

29:                                               ; preds = %24, %17, %11
  store i32 1, ptr %6, align 4
  br label %103

30:                                               ; preds = %24
  br label %31

31:                                               ; preds = %30
  %32 = load ptr, ptr %4, align 8, !tbaa !170
  %33 = getelementptr inbounds nuw %struct.rev_collect, ptr %32, i32 0, i32 1
  %34 = load i32, ptr %33, align 8, !tbaa !165
  %35 = add nsw i32 %34, 1
  %36 = load ptr, ptr %4, align 8, !tbaa !170
  %37 = getelementptr inbounds nuw %struct.rev_collect, ptr %36, i32 0, i32 2
  %38 = load i32, ptr %37, align 4, !tbaa !172
  %39 = icmp sgt i32 %35, %38
  br i1 %39, label %40, label %80

40:                                               ; preds = %31
  %41 = load ptr, ptr %4, align 8, !tbaa !170
  %42 = getelementptr inbounds nuw %struct.rev_collect, ptr %41, i32 0, i32 2
  %43 = load i32, ptr %42, align 4, !tbaa !172
  %44 = add nsw i32 %43, 16
  %45 = mul nsw i32 %44, 3
  %46 = sdiv i32 %45, 2
  %47 = load ptr, ptr %4, align 8, !tbaa !170
  %48 = getelementptr inbounds nuw %struct.rev_collect, ptr %47, i32 0, i32 1
  %49 = load i32, ptr %48, align 8, !tbaa !165
  %50 = add nsw i32 %49, 1
  %51 = icmp slt i32 %46, %50
  br i1 %51, label %52, label %59

52:                                               ; preds = %40
  %53 = load ptr, ptr %4, align 8, !tbaa !170
  %54 = getelementptr inbounds nuw %struct.rev_collect, ptr %53, i32 0, i32 1
  %55 = load i32, ptr %54, align 8, !tbaa !165
  %56 = add nsw i32 %55, 1
  %57 = load ptr, ptr %4, align 8, !tbaa !170
  %58 = getelementptr inbounds nuw %struct.rev_collect, ptr %57, i32 0, i32 2
  store i32 %56, ptr %58, align 4, !tbaa !172
  br label %68

59:                                               ; preds = %40
  %60 = load ptr, ptr %4, align 8, !tbaa !170
  %61 = getelementptr inbounds nuw %struct.rev_collect, ptr %60, i32 0, i32 2
  %62 = load i32, ptr %61, align 4, !tbaa !172
  %63 = add nsw i32 %62, 16
  %64 = mul nsw i32 %63, 3
  %65 = sdiv i32 %64, 2
  %66 = load ptr, ptr %4, align 8, !tbaa !170
  %67 = getelementptr inbounds nuw %struct.rev_collect, ptr %66, i32 0, i32 2
  store i32 %65, ptr %67, align 4, !tbaa !172
  br label %68

68:                                               ; preds = %59, %52
  %69 = load ptr, ptr %4, align 8, !tbaa !170
  %70 = getelementptr inbounds nuw %struct.rev_collect, ptr %69, i32 0, i32 0
  %71 = load ptr, ptr %70, align 8, !tbaa !167
  %72 = load ptr, ptr %4, align 8, !tbaa !170
  %73 = getelementptr inbounds nuw %struct.rev_collect, ptr %72, i32 0, i32 2
  %74 = load i32, ptr %73, align 4, !tbaa !172
  %75 = sext i32 %74 to i64
  %76 = call i64 @st_mult(i64 noundef 8, i64 noundef %75)
  %77 = call ptr @xrealloc(ptr noundef %71, i64 noundef %76)
  %78 = load ptr, ptr %4, align 8, !tbaa !170
  %79 = getelementptr inbounds nuw %struct.rev_collect, ptr %78, i32 0, i32 0
  store ptr %77, ptr %79, align 8, !tbaa !167
  br label %80

80:                                               ; preds = %68, %31
  br label %81

81:                                               ; preds = %80
  br label %82

82:                                               ; preds = %81
  %83 = load ptr, ptr %5, align 8, !tbaa !17
  %84 = load ptr, ptr %4, align 8, !tbaa !170
  %85 = getelementptr inbounds nuw %struct.rev_collect, ptr %84, i32 0, i32 0
  %86 = load ptr, ptr %85, align 8, !tbaa !167
  %87 = load ptr, ptr %4, align 8, !tbaa !170
  %88 = getelementptr inbounds nuw %struct.rev_collect, ptr %87, i32 0, i32 1
  %89 = load i32, ptr %88, align 8, !tbaa !165
  %90 = add nsw i32 %89, 1
  store i32 %90, ptr %88, align 8, !tbaa !165
  %91 = sext i32 %89 to i64
  %92 = getelementptr inbounds ptr, ptr %86, i64 %91
  store ptr %83, ptr %92, align 8, !tbaa !17
  %93 = load ptr, ptr %5, align 8, !tbaa !17
  %94 = getelementptr inbounds nuw %struct.commit, ptr %93, i32 0, i32 0
  %95 = load i32, ptr %94, align 8
  %96 = lshr i32 %95, 4
  %97 = or i32 %96, 16
  %98 = load i32, ptr %94, align 8
  %99 = and i32 %97, 268435455
  %100 = shl i32 %99, 4
  %101 = and i32 %98, 15
  %102 = or i32 %101, %100
  store i32 %102, ptr %94, align 8
  store i32 0, ptr %6, align 4
  br label %103

103:                                              ; preds = %82, %29, %10
  call void @llvm.lifetime.end.p0(i64 8, ptr %5) #11
  %104 = load i32, ptr %6, align 4
  switch i32 %104, label %106 [
    i32 0, label %105
    i32 1, label %105
  ]

105:                                              ; preds = %103, %103
  ret void

106:                                              ; preds = %103
  unreachable
}