; Function Attrs: nounwind uwtable
define internal fastcc void @add_one_commit(ptr noundef %0, ptr noundef captures(none) %1) unnamed_addr #0 {
  %bcmp.i = tail call i32 @bcmp(ptr noundef nonnull readonly dereferenceable(32) %0, ptr noundef nonnull dereferenceable(32) @is_null_oid.null_hash, i64 32)
  %.not.i.not = icmp eq i32 %bcmp.i, 0
  br i1 %.not.i.not, label %40, label %3

3:                                                ; preds = %2
  %4 = load ptr, ptr @the_repository, align 8, !tbaa !4
  %5 = tail call ptr @lookup_object(ptr noundef %4, ptr noundef nonnull %0) #24
  %.not.i28 = icmp eq ptr %5, null
  br i1 %.not.i28, label %6, label %9

6:                                                ; preds = %3
  %7 = tail call ptr @alloc_commit_node(ptr noundef %4) #24
  %8 = tail call ptr @create_object(ptr noundef %4, ptr noundef nonnull %0, ptr noundef %7) #24
  br label %lookup_commit.exit

9:                                                ; preds = %3
  %10 = tail call ptr @object_as_type(ptr noundef nonnull %5, i32 noundef 1, i32 noundef 0) #24
  br label %lookup_commit.exit

lookup_commit.exit:                               ; preds = %6, %9
  %.0.i = phi ptr [ %10, %9 ], [ %8, %6 ]
  %.not23 = icmp eq ptr %.0.i, null
  br i1 %.not23, label %40, label %11

11:                                               ; preds = %lookup_commit.exit
  %12 = load i32, ptr %.0.i, align 8
  %13 = and i32 %12, 256
  %.not24 = icmp eq i32 %13, 0
  br i1 %.not24, label %14, label %40

14:                                               ; preds = %11
  %15 = load ptr, ptr @the_repository, align 8, !tbaa !4
  %16 = tail call range(i32 -1, 1) i32 @repo_parse_commit_internal(ptr noundef %15, ptr noundef nonnull %.0.i, i32 noundef 0, i32 noundef 1)
  %.not25 = icmp eq i32 %16, 0
  br i1 %.not25, label %17, label %40

17:                                               ; preds = %14
  %18 = getelementptr inbounds nuw i8, ptr %1, i64 8
  %19 = load i32, ptr %18, align 8, !tbaa !140
  %20 = getelementptr inbounds nuw i8, ptr %1, i64 12
  %21 = load i32, ptr %20, align 4, !tbaa !146
  %.not26 = icmp slt i32 %19, %21
  br i1 %.not26, label %._crit_edge, label %22

._crit_edge:                                      ; preds = %17
  %.pre = load ptr, ptr %1, align 8, !tbaa !143
  br label %32

22:                                               ; preds = %17
  %23 = add nsw i32 %19, 1
  %24 = mul i32 %21, 3
  %25 = add i32 %24, 48
  %26 = sdiv i32 %25, 2
  %.not27 = icmp sgt i32 %26, %19
  %. = select i1 %.not27, i32 %26, i32 %23
  store i32 %., ptr %20, align 4, !tbaa !146
  %27 = sext i32 %. to i64
  %mul.ov.i = icmp slt i32 %., 0
  br i1 %mul.ov.i, label %28, label %st_mult.exit

28:                                               ; preds = %22
  tail call void (ptr, ...) @die(ptr noundef nonnull @.str.37, i64 noundef 8, i64 noundef range(i64 -2147483648, 4294967296) %27) #25
  unreachable

st_mult.exit:                                     ; preds = %22
  %29 = load ptr, ptr %1, align 8, !tbaa !143
  %30 = shl nuw nsw i64 %27, 3
  %31 = tail call ptr @xrealloc(ptr noundef %29, i64 noundef %30) #24
  store ptr %31, ptr %1, align 8, !tbaa !143
  %.pre29 = load i32, ptr %18, align 8, !tbaa !140
  br label %32

32:                                               ; preds = %._crit_edge, %st_mult.exit
  %33 = phi i32 [ %19, %._crit_edge ], [ %.pre29, %st_mult.exit ]
  %34 = phi ptr [ %.pre, %._crit_edge ], [ %31, %st_mult.exit ]
  %35 = add nsw i32 %33, 1
  store i32 %35, ptr %18, align 8, !tbaa !140
  %36 = sext i32 %33 to i64
  %37 = getelementptr inbounds ptr, ptr %34, i64 %36
  store ptr %.0.i, ptr %37, align 8, !tbaa !112
  %38 = load i32, ptr %.0.i, align 8
  %39 = or i32 %38, 256
  store i32 %39, ptr %.0.i, align 8
  br label %40

40:                                               ; preds = %lookup_commit.exit, %11, %14, %2, %32
  ret void
}